; Function Attrs: mustprogress uwtable
define internal fastcc void @_ZNK8facebook5velox9functions12_GLOBAL__N_116FromUtf8Function23getReplacementCharacterB5cxx11ERKSt10shared_ptrIKNS0_4TypeEERNS0_13DecodedVectorEi(ptr noalias align 8 %agg.result, i8 %type.0.val.16.val, ptr nocapture noundef nonnull readonly align 8 dereferenceable(120) %decoded, i32 noundef %row) unnamed_addr #0 align 2 personality ptr @__gxx_personality_v0 {
entry:
  %ref.tmp.i = alloca %"class.std::allocator", align 1
  %replacement = alloca %"struct.facebook::velox::StringView", align 8
  %cmp.i = icmp eq i8 %type.0.val.16.val, 4
  %data_.i = getelementptr inbounds i8, ptr %decoded, i64 16
  %0 = load ptr, ptr %data_.i, align 8
  %isIdentityMapping_.i.i = getelementptr inbounds i8, ptr %decoded, i64 58
  %1 = load i8, ptr %isIdentityMapping_.i.i, align 2
  %2 = and i8 %1, 1
  %tobool.not.i.i = icmp eq i8 %2, 0
  br i1 %cmp.i, label %if.then, label %if.end

if.then:                                          ; preds = %entry
  br i1 %tobool.not.i.i, label %if.end.i.i, label %_ZNK8facebook5velox13DecodedVector7valueAtIlEET_i.exit

if.end.i.i:                                       ; preds = %if.then
  %isConstantMapping_.i.i = getelementptr inbounds i8, ptr %decoded, i64 59
  %3 = load i8, ptr %isConstantMapping_.i.i, align 1
  %4 = and i8 %3, 1
  %tobool2.not.i.i = icmp eq i8 %4, 0
  br i1 %tobool2.not.i.i, label %if.end4.i.i, label %if.then3.i.i

if.then3.i.i:                                     ; preds = %if.end.i.i
  %constantIndex_.i.i = getelementptr inbounds i8, ptr %decoded, i64 64
  %5 = load i32, ptr %constantIndex_.i.i, align 8
  br label %_ZNK8facebook5velox13DecodedVector7valueAtIlEET_i.exit

if.end4.i.i:                                      ; preds = %if.end.i.i
  %indices_.i.i = getelementptr inbounds i8, ptr %decoded, i64 8
  %6 = load ptr, ptr %indices_.i.i, align 8
  %idxprom.i.i = sext i32 %row to i64
  %arrayidx.i.i = getelementptr inbounds i32, ptr %6, i64 %idxprom.i.i
  %7 = load i32, ptr %arrayidx.i.i, align 4
  br label %_ZNK8facebook5velox13DecodedVector7valueAtIlEET_i.exit

_ZNK8facebook5velox13DecodedVector7valueAtIlEET_i.exit: ; preds = %if.then, %if.then3.i.i, %if.end4.i.i
  %retval.0.i.i = phi i32 [ %5, %if.then3.i.i ], [ %7, %if.end4.i.i ], [ %row, %if.then ]
  %idxprom.i = sext i32 %retval.0.i.i to i64
  %arrayidx.i = getelementptr inbounds i64, ptr %0, i64 %idxprom.i
  %8 = load i64, ptr %arrayidx.i, align 8
  tail call fastcc void @_ZN8facebook5velox9functions12_GLOBAL__N_116FromUtf8Function17codePointToStringB5cxx11El(ptr noalias align 8 %agg.result, i64 noundef %8)
  br label %return

if.end:                                           ; preds = %entry
  br i1 %tobool.not.i.i, label %if.end.i.i10, label %_ZNK8facebook5velox13DecodedVector7valueAtINS0_10StringViewEEET_i.exit

if.end.i.i10:                                     ; preds = %if.end
  %isConstantMapping_.i.i11 = getelementptr inbounds i8, ptr %decoded, i64 59
  %9 = load i8, ptr %isConstantMapping_.i.i11, align 1
  %10 = and i8 %9, 1
  %tobool2.not.i.i12 = icmp eq i8 %10, 0
  br i1 %tobool2.not.i.i12, label %if.end4.i.i15, label %if.then3.i.i13

if.then3.i.i13:                                   ; preds = %if.end.i.i10
  %constantIndex_.i.i14 = getelementptr inbounds i8, ptr %decoded, i64 64
  %11 = load i32, ptr %constantIndex_.i.i14, align 8
  br label %_ZNK8facebook5velox13DecodedVector7valueAtINS0_10StringViewEEET_i.exit

if.end4.i.i15:                                    ; preds = %if.end.i.i10
  %indices_.i.i16 = getelementptr inbounds i8, ptr %decoded, i64 8
  %12 = load ptr, ptr %indices_.i.i16, align 8
  %idxprom.i.i17 = sext i32 %row to i64
  %arrayidx.i.i18 = getelementptr inbounds i32, ptr %12, i64 %idxprom.i.i17
  %13 = load i32, ptr %arrayidx.i.i18, align 4
  br label %_ZNK8facebook5velox13DecodedVector7valueAtINS0_10StringViewEEET_i.exit

_ZNK8facebook5velox13DecodedVector7valueAtINS0_10StringViewEEET_i.exit: ; preds = %if.end, %if.then3.i.i13, %if.end4.i.i15
  %retval.0.i.i7 = phi i32 [ %11, %if.then3.i.i13 ], [ %13, %if.end4.i.i15 ], [ %row, %if.end ]
  %idxprom.i8 = sext i32 %retval.0.i.i7 to i64
  %arrayidx.i9 = getelementptr inbounds %"struct.facebook::velox::StringView", ptr %0, i64 %idxprom.i8
  %retval.sroa.0.0.copyload.i = load i64, ptr %arrayidx.i9, align 8
  %retval.sroa.2.0.arrayidx.sroa_idx.i = getelementptr inbounds i8, ptr %arrayidx.i9, i64 8
  %retval.sroa.2.0.copyload.i = load ptr, ptr %retval.sroa.2.0.arrayidx.sroa_idx.i, align 8
  store i64 %retval.sroa.0.0.copyload.i, ptr %replacement, align 8
  %14 = getelementptr inbounds i8, ptr %replacement, i64 8
  store ptr %retval.sroa.2.0.copyload.i, ptr %14, align 8
  %15 = trunc i64 %retval.sroa.0.0.copyload.i to i32
  %cmp.i19 = icmp eq i32 %15, 0
  %prefix_.i.i2 = getelementptr inbounds i8, ptr %replacement, i64 4
  br i1 %cmp.i19, label %if.end18.thread, label %if.then6

if.end18.thread:                                  ; preds = %_ZNK8facebook5velox13DecodedVector7valueAtINS0_10StringViewEEET_i.exit
  call void @llvm.lifetime.start.p0(i64 1, ptr nonnull %ref.tmp.i)
  br label %18

if.then6:                                         ; preds = %_ZNK8facebook5velox13DecodedVector7valueAtINS0_10StringViewEEET_i.exit
  %cmp.i.i.i = icmp ult i32 %15, 13
  %cond.i = select i1 %cmp.i.i.i, ptr %prefix_.i.i2, ptr %retval.sroa.2.0.copyload.i
  %conv.i = and i64 %retval.sroa.0.0.copyload.i, 4294967295
  %call9 = call noundef i32 @_ZN8facebook5velox9functions16tryGetCharLengthEPKcl(ptr noundef %cond.i, i64 noundef %conv.i)
  %cmp = icmp slt i32 %call9, 1
  br i1 %cmp, label %if.then10, label %if.end11

if.then10:                                        ; preds = %if.then6
  call void @llvm.trap()
  unreachable

if.end11:                                         ; preds = %if.then6
  %16 = load i32, ptr %replacement, align 8
  %cmp13.not = icmp eq i32 %16, %call9
  br i1 %cmp13.not, label %if.end18, label %if.then16

if.then16:                                        ; preds = %if.end11
  call void @llvm.trap()
  unreachable

if.end18:                                         ; preds = %if.end11
  %.pre = load ptr, ptr %14, align 8, !noalias !40
  call void @llvm.lifetime.start.p0(i64 1, ptr nonnull %ref.tmp.i)
  %cmp.i.i.i.i = icmp ult i32 %call9, 13
  %prefix_.i.i = getelementptr inbounds i8, ptr %replacement, i64 4
  %spec.select = select i1 %cmp.i.i.i.i, ptr %prefix_.i.i, ptr %.pre
  %17 = zext nneg i32 %call9 to i64
  br label %18

18:                                               ; preds = %if.end18, %if.end18.thread
  %conv.i.i = phi i64 [ 0, %if.end18.thread ], [ %17, %if.end18 ]
  %19 = phi ptr [ %prefix_.i.i2, %if.end18.thread ], [ %spec.select, %if.end18 ]
  call void @_ZNSaIcEC1Ev(ptr noundef nonnull align 1 dereferenceable(1) %ref.tmp.i) #33, !noalias !40
  invoke void @_ZNSt7__cxx1112basic_stringIcSt11char_traitsIcESaIcEEC1EPKcmRKS3_(ptr noundef nonnull align 8 dereferenceable(32) %agg.result, ptr noundef %19, i64 noundef %conv.i.i, ptr noundef nonnull align 1 dereferenceable(1) %ref.tmp.i)
          to label %_ZNK8facebook5velox10StringViewcvNSt7__cxx1112basic_stringIcSt11char_traitsIcESaIcEEEEv.exit unwind label %lpad.i

lpad.i:                                           ; preds = %18
  %20 = landingpad { ptr, i32 }
          cleanup
  call void @_ZNSaIcED1Ev(ptr noundef nonnull align 1 dereferenceable(1) %ref.tmp.i) #33
  resume { ptr, i32 } %20

_ZNK8facebook5velox10StringViewcvNSt7__cxx1112basic_stringIcSt11char_traitsIcESaIcEEEEv.exit: ; preds = %18
  call void @_ZNSaIcED1Ev(ptr noundef nonnull align 1 dereferenceable(1) %ref.tmp.i) #33
  call void @llvm.lifetime.end.p0(i64 1, ptr nonnull %ref.tmp.i)
  br label %return

return:                                           ; preds = %_ZNK8facebook5velox10StringViewcvNSt7__cxx1112basic_stringIcSt11char_traitsIcESaIcEEEEv.exit, %_ZNK8facebook5velox13DecodedVector7valueAtIlEET_i.exit
  ret void
}